target datalayout = "e-m:e-p270:32:32-p271:32:32-p272:64:64-i64:64-i128:128-f80:128-n8:16:32:64-S128"
target triple = "x86_64-pc-linux-gnu"

%struct.MECmpContext = type { ptr, [6 x ptr], [6 x ptr], [6 x ptr], [6 x ptr], [6 x ptr], [6 x ptr], [6 x ptr], [6 x ptr], [6 x ptr], [6 x ptr], [6 x ptr], [6 x ptr], [6 x ptr], [6 x ptr], [2 x [4 x ptr]], [6 x ptr] }

; Function Attrs: cold nounwind optsize uwtable
define void @ff_dsputil_init_dwt(ptr noundef %0) #5 {
  %2 = alloca ptr, align 8
  store ptr %0, ptr %2, align 8, !tbaa !69
  %3 = load ptr, ptr %2, align 8, !tbaa !69
  %4 = getelementptr inbounds nuw %struct.MECmpContext, ptr %3, i32 0, i32 11
  %5 = getelementptr inbounds [6 x ptr], ptr %4, i64 0, i64 0
  store ptr @w53_16_c, ptr %5, align 8, !tbaa !71
  %6 = load ptr, ptr %2, align 8, !tbaa !69
  %7 = getelementptr inbounds nuw %struct.MECmpContext, ptr %6, i32 0, i32 11
  %8 = getelementptr inbounds [6 x ptr], ptr %7, i64 0, i64 1
  store ptr @w53_8_c, ptr %8, align 8, !tbaa !71
  %9 = load ptr, ptr %2, align 8, !tbaa !69
  %10 = getelementptr inbounds nuw %struct.MECmpContext, ptr %9, i32 0, i32 12
  %11 = getelementptr inbounds [6 x ptr], ptr %10, i64 0, i64 0
  store ptr @w97_16_c, ptr %11, align 8, !tbaa !71
  %12 = load ptr, ptr %2, align 8, !tbaa !69
  %13 = getelementptr inbounds nuw %struct.MECmpContext, ptr %12, i32 0, i32 12
  %14 = getelementptr inbounds [6 x ptr], ptr %13, i64 0, i64 1
  store ptr @w97_8_c, ptr %14, align 8, !tbaa !71
  ret void
}