; Function Attrs: cold mustprogress nofree norecurse nosync nounwind optsize willreturn memory(argmem: write) uwtable
define void @ff_dsputil_init_dwt(ptr noundef writeonly captures(none) initializes((488, 504), (536, 552)) %0) local_unnamed_addr #9 {
  %2 = getelementptr inbounds nuw i8, ptr %0, i64 488
  store ptr @w53_16_c, ptr %2, align 8, !tbaa !74
  %3 = getelementptr inbounds nuw i8, ptr %0, i64 496
  store ptr @w53_8_c, ptr %3, align 8, !tbaa !74
  %4 = getelementptr inbounds nuw i8, ptr %0, i64 536
  store ptr @w97_16_c, ptr %4, align 8, !tbaa !74
  %5 = getelementptr inbounds nuw i8, ptr %0, i64 544
  store ptr @w97_8_c, ptr %5, align 8, !tbaa !74
  ret void
}